; ModuleID = 'bench/cvc5/original/listener.cpp.ll'
source_filename = "bench/cvc5/original/listener.cpp.ll"
target datalayout = "e-m:e-p270:32:32-p271:32:32-p272:64:64-i64:64-i128:128-f80:128-n8:16:32:64-S128"
target triple = "x86_64-unknown-linux-gnu"

@_ZTVN4cvc58internal8ListenerE = hidden unnamed_addr constant { [5 x ptr] } { [5 x ptr] [ptr null, ptr @_ZTIN4cvc58internal8ListenerE, ptr @_ZN4cvc58internal8ListenerD2Ev, ptr @_ZN4cvc58internal8ListenerD0Ev, ptr @__cxa_pure_virtual] }, align 8
@_ZTVN10__cxxabiv117__class_type_infoE = external global [0 x ptr]
@_ZTSN4cvc58internal8ListenerE = hidden constant [26 x i8] c"N4cvc58internal8ListenerE\00", align 1
@_ZTIN4cvc58internal8ListenerE = hidden constant { ptr, ptr } { ptr getelementptr inbounds (ptr, ptr @_ZTVN10__cxxabiv117__class_type_infoE, i64 2), ptr @_ZTSN4cvc58internal8ListenerE }, align 8

@_ZN4cvc58internal8ListenerD1Ev = hidden unnamed_addr alias void (ptr), ptr @_ZN4cvc58internal8ListenerD2Ev

; Function Attrs: mustprogress nofree norecurse nosync nounwind willreturn memory(argmem: write) uwtable
define hidden void @_ZN4cvc58internal8ListenerC2Ev(ptr nocapture noundef nonnull writeonly align 8 dereferenceable(8) %this) unnamed_addr #0 align 2 {
entry:
  store ptr getelementptr inbounds ({ [5 x ptr] }, ptr @_ZTVN4cvc58internal8ListenerE, i64 0, i32 0, i64 2), ptr %this, align 8
  ret void
}

; Function Attrs: mustprogress nofree norecurse nosync nounwind willreturn memory(none) uwtable
define hidden void @_ZN4cvc58internal8ListenerD2Ev(ptr nocapture nonnull readnone align 8 %this) unnamed_addr #1 align 2 {
entry:
  ret void
}

; Function Attrs: mustprogress noreturn nounwind memory(inaccessiblemem: write) uwtable
define hidden void @_ZN4cvc58internal8ListenerD0Ev(ptr nocapture nonnull readnone align 8 %this) unnamed_addr #2 align 2 {
entry:
  tail call void @llvm.trap() #4
  unreachable
}

; Function Attrs: cold noreturn nounwind memory(inaccessiblemem: write)
declare void @llvm.trap() #3

declare void @__cxa_pure_virtual() unnamed_addr


!llvm.module.flags = !{!0, !1, !2, !3}

!0 = !{i32 1, !"wchar_size", i32 4}
!1 = !{i32 8, !"PIC Level", i32 2}
!2 = !{i32 7, !"uwtable", i32 2}
!3 = !{i32 7, !"frame-pointer", i32 2}
